target datalayout = "e-m:e-p270:32:32-p271:32:32-p272:64:64-i64:64-i128:128-f80:128-n8:16:32:64-S128"
target triple = "x86_64-pc-linux-gnu"

%struct.mbedtls_ssl_cache_context = type { ptr, i32, i32 }
%struct.mbedtls_ssl_cache_entry = type { i64, [32 x i8], i64, ptr, i64, ptr }

; Function Attrs: nounwind uwtable
define internal void @ssl_cache_entry_zeroize(ptr noundef %0) #0 {
  %2 = alloca ptr, align 8
  store ptr %0, ptr %2, align 8, !tbaa !21
  %3 = load ptr, ptr %2, align 8, !tbaa !21
  %4 = icmp eq ptr %3, null
  br i1 %4, label %5, label %6

5:                                                ; preds = %1
  br label %20

6:                                                ; preds = %1
  %7 = load ptr, ptr %2, align 8, !tbaa !21
  %8 = getelementptr inbounds nuw %struct.mbedtls_ssl_cache_entry, ptr %7, i32 0, i32 3
  %9 = load ptr, ptr %8, align 8, !tbaa !22
  %10 = icmp ne ptr %9, null
  br i1 %10, label %11, label %18

11:                                               ; preds = %6
  %12 = load ptr, ptr %2, align 8, !tbaa !21
  %13 = getelementptr inbounds nuw %struct.mbedtls_ssl_cache_entry, ptr %12, i32 0, i32 3
  %14 = load ptr, ptr %13, align 8, !tbaa !22
  %15 = load ptr, ptr %2, align 8, !tbaa !21
  %16 = getelementptr inbounds nuw %struct.mbedtls_ssl_cache_entry, ptr %15, i32 0, i32 4
  %17 = load i64, ptr %16, align 8, !tbaa !24
  call void @mbedtls_zeroize_and_free(ptr noundef %14, i64 noundef %17)
  br label %18

18:                                               ; preds = %11, %6
  %19 = load ptr, ptr %2, align 8, !tbaa !21
  call void @mbedtls_platform_zeroize(ptr noundef %19, i64 noundef 72)
  br label %20

20:                                               ; preds = %18, %5
  ret void
}

; Function Attrs: nounwind uwtable
define hidden void @mbedtls_ssl_cache_free(ptr noundef %0) #0 {
  %2 = alloca ptr, align 8
  %3 = alloca ptr, align 8
  %4 = alloca ptr, align 8
  store ptr %0, ptr %2, align 8, !tbaa !3
  call void @llvm.lifetime.start.p0(i64 8, ptr %3) #8
  call void @llvm.lifetime.start.p0(i64 8, ptr %4) #8
  %5 = load ptr, ptr %2, align 8, !tbaa !3
  %6 = getelementptr inbounds nuw %struct.mbedtls_ssl_cache_context, ptr %5, i32 0, i32 0
  %7 = load ptr, ptr %6, align 8, !tbaa !28
  store ptr %7, ptr %3, align 8, !tbaa !21
  br label %8

8:                                                ; preds = %11, %1
  %9 = load ptr, ptr %3, align 8, !tbaa !21
  %10 = icmp ne ptr %9, null
  br i1 %10, label %11, label %18

11:                                               ; preds = %8
  %12 = load ptr, ptr %3, align 8, !tbaa !21
  store ptr %12, ptr %4, align 8, !tbaa !21
  %13 = load ptr, ptr %3, align 8, !tbaa !21
  %14 = getelementptr inbounds nuw %struct.mbedtls_ssl_cache_entry, ptr %13, i32 0, i32 5
  %15 = load ptr, ptr %14, align 8, !tbaa !31
  store ptr %15, ptr %3, align 8, !tbaa !21
  %16 = load ptr, ptr %4, align 8, !tbaa !21
  call void @ssl_cache_entry_zeroize(ptr noundef %16)
  %17 = load ptr, ptr %4, align 8, !tbaa !21
  call void @free(ptr noundef %17) #8
  br label %8, !llvm.loop !37

18:                                               ; preds = %8
  %19 = load ptr, ptr %2, align 8, !tbaa !3
  %20 = getelementptr inbounds nuw %struct.mbedtls_ssl_cache_context, ptr %19, i32 0, i32 0
  store ptr null, ptr %20, align 8, !tbaa !28
  call void @llvm.lifetime.end.p0(i64 8, ptr %4) #8
  call void @llvm.lifetime.end.p0(i64 8, ptr %3) #8
  ret void
}