; Function Attrs: nounwind uwtable
define hidden void @mbedtls_ssl_cache_free(ptr noundef captures(none) %0) local_unnamed_addr #1 {
  %2 = load ptr, ptr %0, align 8, !tbaa !24
  %.not7 = icmp eq ptr %2, null
  br i1 %.not7, label %._crit_edge, label %.lr.ph

.lr.ph:                                           ; preds = %1, %ssl_cache_entry_zeroize.exit
  %.08 = phi ptr [ %4, %ssl_cache_entry_zeroize.exit ], [ %2, %1 ]
  %3 = getelementptr inbounds nuw i8, ptr %.08, i64 64
  %4 = load ptr, ptr %3, align 8, !tbaa !25
  %5 = getelementptr inbounds nuw i8, ptr %.08, i64 48
  %6 = load ptr, ptr %5, align 8, !tbaa !19
  %.not.i = icmp eq ptr %6, null
  br i1 %.not.i, label %ssl_cache_entry_zeroize.exit, label %7

7:                                                ; preds = %.lr.ph
  %8 = getelementptr inbounds nuw i8, ptr %.08, i64 56
  %9 = load i64, ptr %8, align 8, !tbaa !20
  tail call void @mbedtls_zeroize_and_free(ptr noundef nonnull %6, i64 noundef %9) #10
  br label %ssl_cache_entry_zeroize.exit

ssl_cache_entry_zeroize.exit:                     ; preds = %.lr.ph, %7
  tail call void @mbedtls_platform_zeroize(ptr noundef nonnull %.08, i64 noundef 72) #10
  tail call void @free(ptr noundef nonnull %.08) #10
  %.not = icmp eq ptr %4, null
  br i1 %.not, label %._crit_edge, label %.lr.ph, !llvm.loop !27

._crit_edge:                                      ; preds = %ssl_cache_entry_zeroize.exit, %1
  store ptr null, ptr %0, align 8, !tbaa !24
  ret void
}